target datalayout = "e-m:e-p270:32:32-p271:32:32-p272:64:64-i64:64-i128:128-f80:128-n8:16:32:64-S128"
target triple = "x86_64-unknown-linux-gnu"

%class.btVector3 = type { [4 x float] }
%class.btPolyhedralConvexShape = type { %class.btConvexInternalShape, ptr }
%class.btConvexInternalShape = type { %class.btConvexShape, %class.btVector3, %class.btVector3, float, float }
%class.btConvexShape = type { %class.btCollisionShape }
%class.btCollisionShape = type { ptr, i32, ptr, i32, i32 }

; Function Attrs: mustprogress nounwind uwtable
define linkonce_odr dso_local void @_ZN18btConvexPolyhedrondlEPvS0_(ptr noundef %0, ptr noundef %1) #1 comdat align 2 {
entry:
  %.addr = alloca ptr, align 8
  %.addr1 = alloca ptr, align 8
  store ptr %0, ptr %.addr, align 8
  store ptr %1, ptr %.addr1, align 8
  ret void
}

; Function Attrs: mustprogress nounwind uwtable
define linkonce_odr dso_local noundef ptr @_ZN18btConvexPolyhedronnwEmPv(i64 noundef %0, ptr noundef %ptr) #1 comdat align 2 {
entry:
  %.addr = alloca i64, align 8
  %ptr.addr = alloca ptr, align 8
  store i64 %0, ptr %.addr, align 8
  store ptr %ptr, ptr %ptr.addr, align 8
  %1 = load ptr, ptr %ptr.addr, align 8
  ret ptr %1
}

; Function Attrs: mustprogress uwtable
define dso_local void @_ZN23btPolyhedralConvexShape21setPolyhedralFeaturesER18btConvexPolyhedron(ptr noundef nonnull align 8 dereferenceable(80) %this, ptr noundef nonnull align 8 dereferenceable(172) %polyhedron) unnamed_addr #2 align 2 personality ptr @__gxx_personality_v0 {
entry:
  %this.addr = alloca ptr, align 8
  %polyhedron.addr = alloca ptr, align 8
  %mem = alloca ptr, align 8
  %exn.slot = alloca ptr, align 8
  %ehselector.slot = alloca i32, align 4
  store ptr %this, ptr %this.addr, align 8
  store ptr %polyhedron, ptr %polyhedron.addr, align 8
  %this1 = load ptr, ptr %this.addr, align 8
  %m_polyhedron = getelementptr inbounds %class.btPolyhedralConvexShape, ptr %this1, i32 0, i32 1
  %0 = load ptr, ptr %m_polyhedron, align 8
  %tobool = icmp ne ptr %0, null
  br i1 %tobool, label %if.then, label %if.else

if.then:                                          ; preds = %entry
  %1 = load ptr, ptr %polyhedron.addr, align 8
  %m_polyhedron2 = getelementptr inbounds %class.btPolyhedralConvexShape, ptr %this1, i32 0, i32 1
  %2 = load ptr, ptr %m_polyhedron2, align 8
  %call = call noundef nonnull align 8 dereferenceable(172) ptr @_ZN18btConvexPolyhedronaSERKS_(ptr noundef nonnull align 8 dereferenceable(172) %2, ptr noundef nonnull align 8 dereferenceable(172) %1)
  br label %if.end

if.else:                                          ; preds = %entry
  %call3 = call noundef ptr @_Z22btAlignedAllocInternalmi(i64 noundef 176, i32 noundef 16)
  store ptr %call3, ptr %mem, align 8
  %3 = load ptr, ptr %mem, align 8
  %call4 = call noundef ptr @_ZN18btConvexPolyhedronnwEmPv(i64 noundef 176, ptr noundef %3)
  %4 = load ptr, ptr %polyhedron.addr, align 8
  invoke void @_ZN18btConvexPolyhedronC2ERKS_(ptr noundef nonnull align 8 dereferenceable(172) %call4, ptr noundef nonnull align 8 dereferenceable(172) %4)
          to label %invoke.cont unwind label %lpad

invoke.cont:                                      ; preds = %if.else
  %m_polyhedron5 = getelementptr inbounds %class.btPolyhedralConvexShape, ptr %this1, i32 0, i32 1
  store ptr %call4, ptr %m_polyhedron5, align 8
  br label %if.end

lpad:                                             ; preds = %if.else
  %5 = landingpad { ptr, i32 }
          cleanup
  %6 = extractvalue { ptr, i32 } %5, 0
  store ptr %6, ptr %exn.slot, align 8
  %7 = extractvalue { ptr, i32 } %5, 1
  store i32 %7, ptr %ehselector.slot, align 4
  call void @_ZN18btConvexPolyhedrondlEPvS0_(ptr noundef %call4, ptr noundef %3) #8
  br label %eh.resume

if.end:                                           ; preds = %invoke.cont, %if.then
  ret void

eh.resume:                                        ; preds = %lpad
  %exn = load ptr, ptr %exn.slot, align 8
  %sel = load i32, ptr %ehselector.slot, align 4
  %lpad.val = insertvalue { ptr, i32 } poison, ptr %exn, 0
  %lpad.val6 = insertvalue { ptr, i32 } %lpad.val, i32 %sel, 1
  resume { ptr, i32 } %lpad.val6
}