; Function Attrs: mustprogress uwtable
define dso_local void @_ZN23btPolyhedralConvexShape21setPolyhedralFeaturesER18btConvexPolyhedron(ptr nocapture noundef nonnull align 8 dereferenceable(80) %this, ptr noundef nonnull align 8 dereferenceable(172) %polyhedron) unnamed_addr #0 align 2 personality ptr @__gxx_personality_v0 {
entry:
  %m_polyhedron = getelementptr inbounds i8, ptr %this, i64 72
  %0 = load ptr, ptr %m_polyhedron, align 8
  %tobool.not = icmp eq ptr %0, null
  br i1 %tobool.not, label %if.else, label %if.then

if.then:                                          ; preds = %entry
  %call = tail call noundef nonnull align 8 dereferenceable(172) ptr @_ZN18btConvexPolyhedronaSERKS_(ptr noundef nonnull align 8 dereferenceable(172) %0, ptr noundef nonnull align 8 dereferenceable(172) %polyhedron)
  br label %if.end

if.else:                                          ; preds = %entry
  %call3 = tail call noundef ptr @_Z22btAlignedAllocInternalmi(i64 noundef 176, i32 noundef 16)
  tail call void @_ZN18btConvexPolyhedronC2ERKS_(ptr noundef nonnull align 8 dereferenceable(172) %call3, ptr noundef nonnull align 8 dereferenceable(172) %polyhedron)
  store ptr %call3, ptr %m_polyhedron, align 8
  br label %if.end

if.end:                                           ; preds = %if.else, %if.then
  ret void
}